(dp0
S'gaussian_sigma'
p1
F0.0
sS'z_dist'
p2
S'depth_file'
p3
sS'topo_file'
p4
S'crm_socal_1as_vers2.nc'
p5
sS'z_bounds'
p6
(lp7
I0
aI40
asS'num_soda_cans'
p8
I3
sS'current_file'
p9
S'ca_subCA_das_2020010615.nc'
p10
sS'world_env'
p11
S'mission_bay_flatter'
p12
sS'y_bounds'
p13
(lp14
I0
aI100
asS'gaussian_mu'
p15
F0.0
sS'coords_bbox'
p16
cnumpy.core.multiarray
_reconstruct
p17
(cnumpy
ndarray
p18
(I0
tp19
S'b'
p20
tp21
Rp22
(I1
(I4
I2
tp23
cnumpy
dtype
p24
(S'f8'
p25
I0
I1
tp26
Rp27
(I3
S'<'
p28
NNNI-1
I-1
I0
tp29
bI00
S'5^\xbaI\x0cb@@`\xe5\xd0"\xdbQ]\xc05^\xbaI\x0cb@@\xaa\xf1\xd2MbP]\xc0V\x0e-\xb2\x9d_@@\xaa\xf1\xd2MbP]\xc0V\x0e-\xb2\x9d_@@`\xe5\xd0"\xdbQ]\xc0'
p30
tp31
bsS'x_bounds'
p32
(lp33
I0
aI100
asS'current_file1'
p34
S'ca_subCA_fcst_2020051703.nc'
p35
sS'current_file2'
p36
S'ca_subCA_fcst_2020051803.nc'
p37
sS'distribution_type'
p38
S'file'
p39
sS'sc_coord_file'
p40
S'test_sc_pts.yaml'
p41
s.