(dp0
S'gaussian_sigma'
p1
F0.0
sS'topo_file'
p2
S'crm_socal_1as_vers2.nc'
p3
sS'z_bounds'
p4
(lp5
I0
aI100
asS'num_soda_cans'
p6
I10
sS'current_file'
p7
S'ca_subCA_das_2020010615.nc'
p8
sS'world_env'
p9
S'mission_bay_flatter'
p10
sS'y_bounds'
p11
(lp12
I0
aI100
asS'gaussian_mu'
p13
F0.0
sS'coords_bbox'
p14
cnumpy.core.multiarray
_reconstruct
p15
(cnumpy
ndarray
p16
(I0
tp17
S'b'
p18
tp19
Rp20
(I1
(I4
I2
tp21
cnumpy
dtype
p22
(S'f8'
p23
I0
I1
tp24
Rp25
(I3
S'<'
p26
NNNI-1
I-1
I0
tp27
bI00
S'5^\xbaI\x0cb@@`\xe5\xd0"\xdbQ]\xc05^\xbaI\x0cb@@\xaa\xf1\xd2MbP]\xc0V\x0e-\xb2\x9d_@@\xaa\xf1\xd2MbP]\xc0V\x0e-\xb2\x9d_@@`\xe5\xd0"\xdbQ]\xc0'
p28
tp29
bsS'x_bounds'
p30
(lp31
I0
aI100
asS'z_dist'
p32
S'depth_file'
p33
sS'distribution_type'
p34
S'file'
p35
sS'sc_coord_file'
p36
S'test_sc_pts.yaml'
p37
s.